; ModuleID = '4/131.c'
source_filename = "4/131.c"
target datalayout = "e-m:e-p270:32:32-p271:32:32-p272:64:64-i64:64-f80:128-n8:16:32:64-S128"
target triple = "x86_64-pc-linux-gnu"

@.str = private unnamed_addr constant [5 x i8] c"%d%d\00", align 1
@.str.1 = private unnamed_addr constant [3 x i8] c"%d\00", align 1
@.str.2 = private unnamed_addr constant [4 x i8] c"%d\0A\00", align 1

; Function Attrs: noinline nounwind uwtable
define dso_local void @main() #0 {
  %1 = alloca [100 x [100 x i32]], align 16
  %2 = alloca i32, align 4
  %3 = alloca i32, align 4
  %4 = alloca i32, align 4
  %5 = alloca i32, align 4
  %6 = alloca i32, align 4
  %7 = call i32 (i8*, ...) @__isoc99_scanf(i8* getelementptr inbounds ([5 x i8], [5 x i8]* @.str, i64 0, i64 0), i32* %4, i32* %5)
  store i32 0, i32* %2, align 4
  br label %8

8:                                                ; preds = %29, %0
  %9 = load i32, i32* %2, align 4
  %10 = load i32, i32* %4, align 4
  %11 = icmp slt i32 %9, %10
  br i1 %11, label %12, label %32

12:                                               ; preds = %8
  store i32 0, i32* %3, align 4
  br label %13

13:                                               ; preds = %25, %12
  %14 = load i32, i32* %3, align 4
  %15 = load i32, i32* %5, align 4
  %16 = icmp slt i32 %14, %15
  br i1 %16, label %17, label %28

17:                                               ; preds = %13
  %18 = load i32, i32* %2, align 4
  %19 = sext i32 %18 to i64
  %20 = getelementptr inbounds [100 x [100 x i32]], [100 x [100 x i32]]* %1, i64 0, i64 %19
  %21 = load i32, i32* %3, align 4
  %22 = sext i32 %21 to i64
  %23 = getelementptr inbounds [100 x i32], [100 x i32]* %20, i64 0, i64 %22
  %24 = call i32 (i8*, ...) @__isoc99_scanf(i8* getelementptr inbounds ([3 x i8], [3 x i8]* @.str.1, i64 0, i64 0), i32* %23)
  br label %25

25:                                               ; preds = %17
  %26 = load i32, i32* %3, align 4
  %27 = add nsw i32 %26, 1
  store i32 %27, i32* %3, align 4
  br label %13

28:                                               ; preds = %13
  br label %29

29:                                               ; preds = %28
  %30 = load i32, i32* %2, align 4
  %31 = add nsw i32 %30, 1
  store i32 %31, i32* %2, align 4
  br label %8

32:                                               ; preds = %8
  store i32 0, i32* %2, align 4
  store i32 0, i32* %3, align 4
  store i32 2, i32* %6, align 4
  br label %33

33:                                               ; preds = %58, %32
  %34 = load i32, i32* %3, align 4
  %35 = load i32, i32* %5, align 4
  %36 = icmp slt i32 %34, %35
  br i1 %36, label %37, label %63

37:                                               ; preds = %33
  %38 = load i32, i32* %2, align 4
  %39 = sext i32 %38 to i64
  %40 = getelementptr inbounds [100 x [100 x i32]], [100 x [100 x i32]]* %1, i64 0, i64 %39
  %41 = load i32, i32* %3, align 4
  %42 = sext i32 %41 to i64
  %43 = getelementptr inbounds [100 x i32], [100 x i32]* %40, i64 0, i64 %42
  %44 = load i32, i32* %43, align 4
  %45 = call i32 (i8*, ...) @printf(i8* getelementptr inbounds ([4 x i8], [4 x i8]* @.str.2, i64 0, i64 0), i32 %44)
  %46 = load i32, i32* %3, align 4
  %47 = icmp eq i32 %46, 0
  br i1 %47, label %53, label %48

48:                                               ; preds = %37
  %49 = load i32, i32* %2, align 4
  %50 = load i32, i32* %4, align 4
  %51 = sub nsw i32 %50, 1
  %52 = icmp eq i32 %49, %51
  br i1 %52, label %53, label %57

53:                                               ; preds = %48, %37
  %54 = load i32, i32* %6, align 4
  store i32 %54, i32* %3, align 4
  %55 = load i32, i32* %6, align 4
  %56 = add nsw i32 %55, 1
  store i32 %56, i32* %6, align 4
  store i32 -1, i32* %2, align 4
  br label %57

57:                                               ; preds = %53, %48
  br label %58

58:                                               ; preds = %57
  %59 = load i32, i32* %2, align 4
  %60 = add nsw i32 %59, 1
  store i32 %60, i32* %2, align 4
  %61 = load i32, i32* %3, align 4
  %62 = add nsw i32 %61, -1
  store i32 %62, i32* %3, align 4
  br label %33

63:                                               ; preds = %33
  store i32 1, i32* %2, align 4
  %64 = load i32, i32* %5, align 4
  %65 = sub nsw i32 %64, 1
  store i32 %65, i32* %3, align 4
  store i32 1, i32* %6, align 4
  br label %66

66:                                               ; preds = %92, %63
  %67 = load i32, i32* %2, align 4
  %68 = load i32, i32* %4, align 4
  %69 = icmp slt i32 %67, %68
  br i1 %69, label %70, label %97

70:                                               ; preds = %66
  %71 = load i32, i32* %2, align 4
  %72 = sext i32 %71 to i64
  %73 = getelementptr inbounds [100 x [100 x i32]], [100 x [100 x i32]]* %1, i64 0, i64 %72
  %74 = load i32, i32* %3, align 4
  %75 = sext i32 %74 to i64
  %76 = getelementptr inbounds [100 x i32], [100 x i32]* %73, i64 0, i64 %75
  %77 = load i32, i32* %76, align 4
  %78 = call i32 (i8*, ...) @printf(i8* getelementptr inbounds ([4 x i8], [4 x i8]* @.str.2, i64 0, i64 0), i32 %77)
  %79 = load i32, i32* %2, align 4
  %80 = load i32, i32* %4, align 4
  %81 = sub nsw i32 %80, 1
  %82 = icmp eq i32 %79, %81
  br i1 %82, label %86, label %83

83:                                               ; preds = %70
  %84 = load i32, i32* %3, align 4
  %85 = icmp eq i32 %84, 0
  br i1 %85, label %86, label %91

86:                                               ; preds = %83, %70
  %87 = load i32, i32* %6, align 4
  store i32 %87, i32* %2, align 4
  %88 = load i32, i32* %6, align 4
  %89 = add nsw i32 %88, 1
  store i32 %89, i32* %6, align 4
  %90 = load i32, i32* %5, align 4
  store i32 %90, i32* %3, align 4
  br label %91

91:                                               ; preds = %86, %83
  br label %92

92:                                               ; preds = %91
  %93 = load i32, i32* %2, align 4
  %94 = add nsw i32 %93, 1
  store i32 %94, i32* %2, align 4
  %95 = load i32, i32* %3, align 4
  %96 = add nsw i32 %95, -1
  store i32 %96, i32* %3, align 4
  br label %66

97:                                               ; preds = %66
  ret void
}

declare dso_local i32 @__isoc99_scanf(i8*, ...) #1

declare dso_local i32 @printf(i8*, ...) #1


!llvm.module.flags = !{!0}
!llvm.ident = !{!1}

!0 = !{i32 1, !"wchar_size", i32 4}
!1 = !{!"clang version 10.0.0-4ubuntu1 "}
