; ModuleID = 'source-C-CXX/3/131.c'
source_filename = "source-C-CXX/3/131.c"
target datalayout = "e-m:e-p270:32:32-p271:32:32-p272:64:64-i64:64-f80:128-n8:16:32:64-S128"
target triple = "x86_64-pc-linux-gnu"

@.str = private unnamed_addr constant [5 x i8] c"%d%d\00", align 1
@.str.1 = private unnamed_addr constant [3 x i8] c"%d\00", align 1
@.str.2 = private unnamed_addr constant [4 x i8] c"%d\0A\00", align 1

; Function Attrs: nofree nounwind sspstrong uwtable
define dso_local void @main() local_unnamed_addr #0 {
  %1 = alloca [100 x [100 x i32]], align 16
  %2 = alloca i32, align 4
  %3 = alloca i32, align 4
  %4 = bitcast [100 x [100 x i32]]* %1 to i8*
  call void @llvm.lifetime.start.p0i8(i64 40000, i8* nonnull %4) #3
  %5 = bitcast i32* %2 to i8*
  call void @llvm.lifetime.start.p0i8(i64 4, i8* nonnull %5) #3
  %6 = bitcast i32* %3 to i8*
  call void @llvm.lifetime.start.p0i8(i64 4, i8* nonnull %6) #3
  %7 = call i32 (i8*, ...) @__isoc99_scanf(i8* getelementptr inbounds ([5 x i8], [5 x i8]* @.str, i64 0, i64 0), i32* nonnull %2, i32* nonnull %3)
  %8 = load i32, i32* %2, align 4, !tbaa !5
  %9 = icmp sgt i32 %8, 0
  %10 = load i32, i32* %3, align 4, !tbaa !5
  br i1 %9, label %11, label %18

11:                                               ; preds = %0
  %12 = icmp sgt i32 %10, 0
  br i1 %12, label %13, label %40

13:                                               ; preds = %11, %32
  %14 = phi i32 [ %33, %32 ], [ %8, %11 ]
  %15 = phi i32 [ %34, %32 ], [ %10, %11 ]
  %16 = phi i64 [ %35, %32 ], [ 0, %11 ]
  %17 = icmp sgt i32 %15, 0
  br i1 %17, label %22, label %32

18:                                               ; preds = %32, %0
  %19 = phi i32 [ %8, %0 ], [ %33, %32 ]
  %20 = phi i32 [ %10, %0 ], [ %34, %32 ]
  %21 = icmp sgt i32 %20, 0
  br i1 %21, label %44, label %40

22:                                               ; preds = %13, %22
  %23 = phi i64 [ %26, %22 ], [ 0, %13 ]
  %24 = getelementptr inbounds [100 x [100 x i32]], [100 x [100 x i32]]* %1, i64 0, i64 %16, i64 %23
  %25 = call i32 (i8*, ...) @__isoc99_scanf(i8* getelementptr inbounds ([3 x i8], [3 x i8]* @.str.1, i64 0, i64 0), i32* nonnull %24)
  %26 = add nuw nsw i64 %23, 1
  %27 = load i32, i32* %3, align 4, !tbaa !5
  %28 = sext i32 %27 to i64
  %29 = icmp slt i64 %26, %28
  br i1 %29, label %22, label %30, !llvm.loop !9

30:                                               ; preds = %22
  %31 = load i32, i32* %2, align 4, !tbaa !5
  br label %32

32:                                               ; preds = %30, %13
  %33 = phi i32 [ %31, %30 ], [ %14, %13 ]
  %34 = phi i32 [ %27, %30 ], [ %15, %13 ]
  %35 = add nuw nsw i64 %16, 1
  %36 = sext i32 %33 to i64
  %37 = icmp slt i64 %35, %36
  br i1 %37, label %13, label %18, !llvm.loop !11

38:                                               ; preds = %60
  %39 = load i32, i32* %2, align 4, !tbaa !5
  br label %40

40:                                               ; preds = %11, %38, %18
  %41 = phi i32 [ %19, %18 ], [ %39, %38 ], [ %8, %11 ]
  %42 = phi i32 [ %20, %18 ], [ %66, %38 ], [ %10, %11 ]
  %43 = icmp sgt i32 %41, 1
  br i1 %43, label %68, label %90

44:                                               ; preds = %18, %60
  %45 = phi i32 [ %63, %60 ], [ 2, %18 ]
  %46 = phi i32 [ %65, %60 ], [ 0, %18 ]
  %47 = phi i32 [ %64, %60 ], [ 0, %18 ]
  %48 = sext i32 %47 to i64
  %49 = sext i32 %46 to i64
  %50 = getelementptr inbounds [100 x [100 x i32]], [100 x [100 x i32]]* %1, i64 0, i64 %48, i64 %49
  %51 = load i32, i32* %50, align 4, !tbaa !5
  %52 = call i32 (i8*, ...) @printf(i8* nonnull dereferenceable(1) getelementptr inbounds ([4 x i8], [4 x i8]* @.str.2, i64 0, i64 0), i32 %51)
  %53 = icmp eq i32 %46, 0
  br i1 %53, label %58, label %54

54:                                               ; preds = %44
  %55 = load i32, i32* %2, align 4, !tbaa !5
  %56 = add nsw i32 %55, -1
  %57 = icmp eq i32 %47, %56
  br i1 %57, label %58, label %60

58:                                               ; preds = %54, %44
  %59 = add nsw i32 %45, 1
  br label %60

60:                                               ; preds = %54, %58
  %61 = phi i32 [ -1, %58 ], [ %47, %54 ]
  %62 = phi i32 [ %45, %58 ], [ %46, %54 ]
  %63 = phi i32 [ %59, %58 ], [ %45, %54 ]
  %64 = add nsw i32 %61, 1
  %65 = add nsw i32 %62, -1
  %66 = load i32, i32* %3, align 4, !tbaa !5
  %67 = icmp sgt i32 %62, %66
  br i1 %67, label %38, label %44, !llvm.loop !13

68:                                               ; preds = %40, %68
  %69 = phi i32 [ %85, %68 ], [ %42, %40 ]
  %70 = phi i32 [ %87, %68 ], [ 1, %40 ]
  %71 = phi i32 [ %88, %68 ], [ 1, %40 ]
  %72 = add nsw i32 %69, -1
  %73 = sext i32 %71 to i64
  %74 = sext i32 %72 to i64
  %75 = getelementptr inbounds [100 x [100 x i32]], [100 x [100 x i32]]* %1, i64 0, i64 %73, i64 %74
  %76 = load i32, i32* %75, align 4, !tbaa !5
  %77 = call i32 (i8*, ...) @printf(i8* nonnull dereferenceable(1) getelementptr inbounds ([4 x i8], [4 x i8]* @.str.2, i64 0, i64 0), i32 %76)
  %78 = load i32, i32* %2, align 4, !tbaa !5
  %79 = add nsw i32 %78, -1
  %80 = icmp eq i32 %71, %79
  %81 = icmp eq i32 %72, 0
  %82 = select i1 %80, i1 true, i1 %81
  %83 = load i32, i32* %3, align 4
  %84 = select i1 %82, i32 %70, i32 %71
  %85 = select i1 %82, i32 %83, i32 %72
  %86 = zext i1 %82 to i32
  %87 = add nuw nsw i32 %70, %86
  %88 = add nsw i32 %84, 1
  %89 = icmp slt i32 %88, %78
  br i1 %89, label %68, label %90, !llvm.loop !14

90:                                               ; preds = %68, %40
  call void @llvm.lifetime.end.p0i8(i64 4, i8* nonnull %6) #3
  call void @llvm.lifetime.end.p0i8(i64 4, i8* nonnull %5) #3
  call void @llvm.lifetime.end.p0i8(i64 40000, i8* nonnull %4) #3
  ret void
}

; Function Attrs: argmemonly mustprogress nofree nosync nounwind willreturn
declare void @llvm.lifetime.start.p0i8(i64 immarg, i8* nocapture) #1

; Function Attrs: nofree nounwind
declare noundef i32 @__isoc99_scanf(i8* nocapture noundef readonly, ...) local_unnamed_addr #2

; Function Attrs: nofree nounwind
declare noundef i32 @printf(i8* nocapture noundef readonly, ...) local_unnamed_addr #2

; Function Attrs: argmemonly mustprogress nofree nosync nounwind willreturn
declare void @llvm.lifetime.end.p0i8(i64 immarg, i8* nocapture) #1


!llvm.module.flags = !{!0, !1, !2, !3}
!llvm.ident = !{!4}

!0 = !{i32 1, !"wchar_size", i32 4}
!1 = !{i32 7, !"PIC Level", i32 2}
!2 = !{i32 7, !"PIE Level", i32 2}
!3 = !{i32 7, !"uwtable", i32 1}
!4 = !{!"clang version 13.0.0"}
!5 = !{!6, !6, i64 0}
!6 = !{!"int", !7, i64 0}
!7 = !{!"omnipotent char", !8, i64 0}
!8 = !{!"Simple C/C++ TBAA"}
!9 = distinct !{!9, !10}
!10 = !{!"llvm.loop.mustprogress"}
!11 = distinct !{!11, !10, !12}
!12 = !{!"llvm.loop.unswitch.partial.disable"}
!13 = distinct !{!13, !10}
!14 = distinct !{!14, !10}
